; Function Attrs: nofree norecurse nosync nounwind memory(argmem: readwrite) uwtable
define internal fastcc range(i32 0, 3) i32 @doh_skipqname(ptr noundef nonnull readonly captures(none) %0, i64 noundef range(i64 12, 0) %1, ptr noundef nonnull captures(none) %2) unnamed_addr #6 {
  %.promoted = load i32, ptr %2, align 4, !tbaa !77
  br label %4

4:                                                ; preds = %23, %3
  %5 = phi i32 [ %20, %23 ], [ %.promoted, %3 ]
  %6 = add i32 %5, 1
  %7 = zext i32 %6 to i64
  %8 = icmp ult i64 %1, %7
  br i1 %8, label %.loopexit, label %9

9:                                                ; preds = %4
  %10 = zext i32 %5 to i64
  %11 = getelementptr inbounds nuw i8, ptr %0, i64 %10
  %12 = load i8, ptr %11, align 1, !tbaa !99
  %trunc = and i8 %12, -64
  switch i8 %trunc, label %.loopexit [
    i8 -64, label %13
    i8 0, label %18
  ]

13:                                               ; preds = %9
  %14 = add i32 %5, 2
  %15 = zext i32 %14 to i64
  %16 = icmp ult i64 %1, %15
  br i1 %16, label %.loopexit, label %17

17:                                               ; preds = %13
  store i32 %14, ptr %2, align 4, !tbaa !77
  br label %.loopexit

18:                                               ; preds = %9
  %19 = zext i8 %12 to i32
  %20 = add i32 %6, %19
  %21 = zext i32 %20 to i64
  %22 = icmp ult i64 %1, %21
  br i1 %22, label %.loopexit, label %23

23:                                               ; preds = %18
  store i32 %20, ptr %2, align 4, !tbaa !77
  %.not17 = icmp eq i8 %12, 0
  br i1 %.not17, label %.loopexit, label %4, !llvm.loop !125

.loopexit:                                        ; preds = %23, %18, %9, %4, %17, %13
  %.0 = phi i32 [ 2, %13 ], [ 0, %17 ], [ 0, %23 ], [ 2, %18 ], [ 1, %9 ], [ 2, %4 ]
  ret i32 %.0
}